; Function Attrs: nounwind uwtable
define internal range(i32 -2147483648, 1) i32 @mxf_read_preface_metadata(ptr noundef readonly captures(none) %0, ptr noundef %1, i32 noundef %2, i32 noundef %3, ptr noundef readonly captures(none) %4, i64 %5) #1 {
  %7 = alloca ptr, align 8
  %8 = getelementptr inbounds nuw i8, ptr %0, i64 472
  %9 = load ptr, ptr %8, align 8, !tbaa !39
  call void @llvm.lifetime.start.p0(i64 8, ptr nonnull %7) #15
  %10 = icmp sgt i32 %2, 32767
  br i1 %10, label %11, label %mxf_read_utf16be_string.exit.thread

11:                                               ; preds = %6
  %bcmp = tail call i32 @bcmp(ptr noundef nonnull dereferenceable(16) %4, ptr noundef nonnull dereferenceable(16) @mxf_avid_project_name, i64 16)
  %.not = icmp eq i32 %bcmp, 0
  br i1 %.not, label %12, label %mxf_read_utf16be_string.exit.thread

12:                                               ; preds = %11
  %or.cond.i.i = icmp ugt i32 %3, 1073741823
  br i1 %or.cond.i.i, label %mxf_read_utf16be_string.exit.thread, label %13

13:                                               ; preds = %12
  %14 = lshr i32 %3, 1
  %15 = add nuw nsw i32 %3, 1
  %16 = add nuw nsw i32 %15, %14
  %17 = zext nneg i32 %16 to i64
  tail call void @av_free(ptr noundef null) #15
  %18 = tail call noalias ptr @av_malloc(i64 noundef %17) #15
  store ptr %18, ptr %7, align 8, !tbaa !245
  %.not.i.i = icmp eq ptr %18, null
  br i1 %.not.i.i, label %mxf_read_utf16be_string.exit.thread, label %19

19:                                               ; preds = %13
  %20 = tail call i32 @avio_get_str16be(ptr noundef %1, i32 noundef %3, ptr noundef nonnull %18, i32 noundef %16) #15
  %21 = icmp slt i32 %20, 0
  br i1 %21, label %22, label %mxf_read_utf16be_string.exit

22:                                               ; preds = %19
  call void @av_freep(ptr noundef nonnull %7) #15
  br label %mxf_read_utf16be_string.exit.thread

mxf_read_utf16be_string.exit:                     ; preds = %19
  %23 = getelementptr inbounds nuw i8, ptr %9, i64 192
  %24 = tail call i32 @av_dict_set(ptr noundef nonnull %23, ptr noundef nonnull @.str.46, ptr noundef nonnull %18, i32 noundef 8) #15
  br label %mxf_read_utf16be_string.exit.thread

mxf_read_utf16be_string.exit.thread:              ; preds = %13, %12, %22, %6, %11, %mxf_read_utf16be_string.exit
  %.0 = phi i32 [ 0, %mxf_read_utf16be_string.exit ], [ 0, %11 ], [ 0, %6 ], [ -12, %13 ], [ -22, %12 ], [ %20, %22 ]
  call void @llvm.lifetime.end.p0(i64 8, ptr nonnull %7) #15
  ret i32 %.0
}